; Function Attrs: mustprogress uwtable
define noundef nonnull align 8 dereferenceable(8) ptr @_ZN3gmx15MdrunnerBuilder18addHardwareOptionsERK12gmx_hw_opt_t(ptr noundef nonnull readonly returned align 8 dereferenceable(8) %0, ptr noundef nonnull align 8 dereferenceable(97) %1) local_unnamed_addr #10 align 2 {
  %3 = load ptr, ptr %0, align 8, !tbaa !1246
  %4 = getelementptr inbounds nuw i8, ptr %3, i64 224
  tail call void @llvm.memcpy.p0.p0.i64(ptr noundef nonnull align 8 dereferenceable(97) %4, ptr noundef nonnull align 8 dereferenceable(97) %1, i64 28, i1 false)
  %5 = getelementptr inbounds nuw i8, ptr %3, i64 256
  %6 = getelementptr inbounds nuw i8, ptr %1, i64 32
  tail call void @_ZNSt7__cxx1112basic_stringIcSt11char_traitsIcESaIcEE9_M_assignERKS4_(ptr noundef nonnull align 8 dereferenceable(32) %5, ptr noundef nonnull align 8 dereferenceable(32) %6)
  %7 = getelementptr inbounds nuw i8, ptr %3, i64 288
  %8 = getelementptr inbounds nuw i8, ptr %1, i64 64
  tail call void @_ZNSt7__cxx1112basic_stringIcSt11char_traitsIcESaIcEE9_M_assignERKS4_(ptr noundef nonnull align 8 dereferenceable(32) %7, ptr noundef nonnull align 8 dereferenceable(32) %8)
  %9 = getelementptr inbounds nuw i8, ptr %1, i64 96
  %10 = load i8, ptr %9, align 8, !tbaa !32, !range !36, !noundef !37
  %11 = getelementptr inbounds nuw i8, ptr %3, i64 320
  store i8 %10, ptr %11, align 8, !tbaa !32
  ret ptr %0
}